target datalayout = "e-m:e-p270:32:32-p271:32:32-p272:64:64-i64:64-i128:128-f80:128-n8:16:32:64-S128"
target triple = "x86_64-pc-linux-gnu"

%"class.std::vector.14" = type { %"struct.std::_Vector_base.15" }
%"struct.std::_Vector_base.15" = type { %"struct.std::_Vector_base<int, std::allocator<int>>::_Vector_impl" }
%"struct.std::_Vector_base<int, std::allocator<int>>::_Vector_impl" = type { %"struct.std::_Vector_base<int, std::allocator<int>>::_Vector_impl_data" }
%"struct.std::_Vector_base<int, std::allocator<int>>::_Vector_impl_data" = type { ptr, ptr, ptr }
%"class.std::shared_ptr" = type { %"class.std::__shared_ptr" }
%"class.std::__shared_ptr" = type { ptr, %"class.std::__shared_count" }
%"class.std::__shared_count" = type { ptr }
%"class.open_spiel::tiny_bridge::TinyBridgeAuctionState" = type <{ %"class.open_spiel::State.base", i8, [3 x i8], double, %"class.std::vector.14", i8, [7 x i8] }>
%"class.open_spiel::State.base" = type <{ ptr, %"class.std::shared_ptr", i32, i32, %"class.std::vector", i32 }>
%"class.std::vector" = type { %"struct.std::_Vector_base" }
%"struct.std::_Vector_base" = type { %"struct.std::_Vector_base<open_spiel::State::PlayerAction, std::allocator<open_spiel::State::PlayerAction>>::_Vector_impl" }
%"struct.std::_Vector_base<open_spiel::State::PlayerAction, std::allocator<open_spiel::State::PlayerAction>>::_Vector_impl" = type { %"struct.std::_Vector_base<open_spiel::State::PlayerAction, std::allocator<open_spiel::State::PlayerAction>>::_Vector_impl_data" }
%"struct.std::_Vector_base<open_spiel::State::PlayerAction, std::allocator<open_spiel::State::PlayerAction>>::_Vector_impl_data" = type { ptr, ptr, ptr }
%"class.open_spiel::State" = type <{ ptr, %"class.std::shared_ptr", i32, i32, %"class.std::vector", i32, [4 x i8] }>
%"struct.open_spiel::tiny_bridge::TinyBridgeAuctionState::AuctionState" = type { i64, i32, i32, i32 }

; Function Attrs: mustprogress nounwind uwtable
define noundef i32 @_ZNK10open_spiel11tiny_bridge22TinyBridgeAuctionState12PlayerToSeatEi(ptr noundef nonnull align 8 dereferenceable(97) %0, i32 noundef %1) #5 align 2 {
  %3 = alloca ptr, align 8
  %4 = alloca i32, align 4
  store ptr %0, ptr %3, align 8
  store i32 %1, ptr %4, align 4
  %5 = load ptr, ptr %3, align 8
  %6 = getelementptr inbounds nuw %"class.open_spiel::State", ptr %5, i32 0, i32 3
  %7 = load i32, ptr %6, align 4
  %8 = icmp eq i32 %7, 2
  br i1 %8, label %9, label %12

9:                                                ; preds = %2
  %10 = load i32, ptr %4, align 4
  %11 = mul nsw i32 %10, 2
  br label %14

12:                                               ; preds = %2
  %13 = load i32, ptr %4, align 4
  br label %14

14:                                               ; preds = %12, %9
  %15 = phi i32 [ %11, %9 ], [ %13, %12 ]
  ret i32 %15
}

; Function Attrs: mustprogress nounwind uwtable
define linkonce_odr noundef nonnull align 4 dereferenceable(4) ptr @_ZNKSt6vectorIiSaIiEEixEm(ptr noundef nonnull align 8 dereferenceable(24) %0, i64 noundef %1) #5 comdat align 2 {
  %3 = alloca ptr, align 8
  %4 = alloca i64, align 8
  store ptr %0, ptr %3, align 8
  store i64 %1, ptr %4, align 8
  %5 = load ptr, ptr %3, align 8
  %6 = getelementptr inbounds nuw %"struct.std::_Vector_base.15", ptr %5, i32 0, i32 0
  %7 = getelementptr inbounds nuw %"struct.std::_Vector_base<int, std::allocator<int>>::_Vector_impl_data", ptr %6, i32 0, i32 0
  %8 = load ptr, ptr %7, align 8
  %9 = load i64, ptr %4, align 8
  %10 = getelementptr inbounds i32, ptr %8, i64 %9
  ret ptr %10
}

; Function Attrs: mustprogress nounwind uwtable
define linkonce_odr noundef i64 @_ZNKSt6vectorIiSaIiEE4sizeEv(ptr noundef nonnull align 8 dereferenceable(24) %0) #5 comdat align 2 {
  %2 = alloca ptr, align 8
  store ptr %0, ptr %2, align 8
  %3 = load ptr, ptr %2, align 8
  %4 = getelementptr inbounds nuw %"struct.std::_Vector_base.15", ptr %3, i32 0, i32 0
  %5 = getelementptr inbounds nuw %"struct.std::_Vector_base<int, std::allocator<int>>::_Vector_impl_data", ptr %4, i32 0, i32 1
  %6 = load ptr, ptr %5, align 8
  %7 = getelementptr inbounds nuw %"struct.std::_Vector_base.15", ptr %3, i32 0, i32 0
  %8 = getelementptr inbounds nuw %"struct.std::_Vector_base<int, std::allocator<int>>::_Vector_impl_data", ptr %7, i32 0, i32 0
  %9 = load ptr, ptr %8, align 8
  %10 = ptrtoint ptr %6 to i64
  %11 = ptrtoint ptr %9 to i64
  %12 = sub i64 %10, %11
  %13 = sdiv exact i64 %12, 4
  ret i64 %13
}

; Function Attrs: mustprogress nounwind uwtable
define void @_ZNK10open_spiel11tiny_bridge22TinyBridgeAuctionState14AnalyzeAuctionEv(ptr dead_on_unwind noalias writable sret(%"struct.open_spiel::tiny_bridge::TinyBridgeAuctionState::AuctionState") align 8 %0, ptr noundef nonnull align 8 dereferenceable(97) %1) #5 align 2 {
  %3 = alloca ptr, align 8
  %4 = alloca i32, align 4
  store ptr %1, ptr %3, align 8
  %5 = load ptr, ptr %3, align 8
  %6 = getelementptr inbounds nuw %"struct.open_spiel::tiny_bridge::TinyBridgeAuctionState::AuctionState", ptr %0, i32 0, i32 0
  store i64 0, ptr %6, align 8
  %7 = getelementptr inbounds nuw %"struct.open_spiel::tiny_bridge::TinyBridgeAuctionState::AuctionState", ptr %0, i32 0, i32 1
  store i32 -1, ptr %7, align 8
  %8 = getelementptr inbounds nuw %"struct.open_spiel::tiny_bridge::TinyBridgeAuctionState::AuctionState", ptr %0, i32 0, i32 2
  store i32 -1, ptr %8, align 4
  %9 = getelementptr inbounds nuw %"struct.open_spiel::tiny_bridge::TinyBridgeAuctionState::AuctionState", ptr %0, i32 0, i32 3
  store i32 -1, ptr %9, align 8
  %10 = getelementptr inbounds nuw %"class.open_spiel::State", ptr %5, i32 0, i32 3
  %11 = load i32, ptr %10, align 4
  store i32 %11, ptr %4, align 4
  br label %12

12:                                               ; preds = %72, %2
  %13 = load i32, ptr %4, align 4
  %14 = sext i32 %13 to i64
  %15 = getelementptr inbounds nuw %"class.open_spiel::tiny_bridge::TinyBridgeAuctionState", ptr %5, i32 0, i32 4
  %16 = call noundef i64 @_ZNKSt6vectorIiSaIiEE4sizeEv(ptr noundef nonnull align 8 dereferenceable(24) %15) #3
  %17 = icmp ult i64 %14, %16
  br i1 %17, label %18, label %75

18:                                               ; preds = %12
  %19 = getelementptr inbounds nuw %"class.open_spiel::tiny_bridge::TinyBridgeAuctionState", ptr %5, i32 0, i32 4
  %20 = load i32, ptr %4, align 4
  %21 = sext i32 %20 to i64
  %22 = call noundef nonnull align 4 dereferenceable(4) ptr @_ZNKSt6vectorIiSaIiEEixEm(ptr noundef nonnull align 8 dereferenceable(24) %19, i64 noundef %21) #3
  %23 = load i32, ptr %22, align 4
  %24 = icmp eq i32 %23, 7
  br i1 %24, label %25, label %32

25:                                               ; preds = %18
  %26 = load i32, ptr %4, align 4
  %27 = getelementptr inbounds nuw %"class.open_spiel::State", ptr %5, i32 0, i32 3
  %28 = load i32, ptr %27, align 4
  %29 = srem i32 %26, %28
  %30 = call noundef i32 @_ZNK10open_spiel11tiny_bridge22TinyBridgeAuctionState12PlayerToSeatEi(ptr noundef nonnull align 8 dereferenceable(97) %5, i32 noundef %29)
  %31 = getelementptr inbounds nuw %"struct.open_spiel::tiny_bridge::TinyBridgeAuctionState::AuctionState", ptr %0, i32 0, i32 2
  store i32 %30, ptr %31, align 4
  br label %71

32:                                               ; preds = %18
  %33 = getelementptr inbounds nuw %"class.open_spiel::tiny_bridge::TinyBridgeAuctionState", ptr %5, i32 0, i32 4
  %34 = load i32, ptr %4, align 4
  %35 = sext i32 %34 to i64
  %36 = call noundef nonnull align 4 dereferenceable(4) ptr @_ZNKSt6vectorIiSaIiEEixEm(ptr noundef nonnull align 8 dereferenceable(24) %33, i64 noundef %35) #3
  %37 = load i32, ptr %36, align 4
  %38 = icmp eq i32 %37, 8
  br i1 %38, label %39, label %46

39:                                               ; preds = %32
  %40 = load i32, ptr %4, align 4
  %41 = getelementptr inbounds nuw %"class.open_spiel::State", ptr %5, i32 0, i32 3
  %42 = load i32, ptr %41, align 4
  %43 = srem i32 %40, %42
  %44 = call noundef i32 @_ZNK10open_spiel11tiny_bridge22TinyBridgeAuctionState12PlayerToSeatEi(ptr noundef nonnull align 8 dereferenceable(97) %5, i32 noundef %43)
  %45 = getelementptr inbounds nuw %"struct.open_spiel::tiny_bridge::TinyBridgeAuctionState::AuctionState", ptr %0, i32 0, i32 3
  store i32 %44, ptr %45, align 8
  br label %70

46:                                               ; preds = %32
  %47 = getelementptr inbounds nuw %"class.open_spiel::tiny_bridge::TinyBridgeAuctionState", ptr %5, i32 0, i32 4
  %48 = load i32, ptr %4, align 4
  %49 = sext i32 %48 to i64
  %50 = call noundef nonnull align 4 dereferenceable(4) ptr @_ZNKSt6vectorIiSaIiEEixEm(ptr noundef nonnull align 8 dereferenceable(24) %47, i64 noundef %49) #3
  %51 = load i32, ptr %50, align 4
  %52 = icmp ne i32 %51, 0
  br i1 %52, label %53, label %69

53:                                               ; preds = %46
  %54 = getelementptr inbounds nuw %"class.open_spiel::tiny_bridge::TinyBridgeAuctionState", ptr %5, i32 0, i32 4
  %55 = load i32, ptr %4, align 4
  %56 = sext i32 %55 to i64
  %57 = call noundef nonnull align 4 dereferenceable(4) ptr @_ZNKSt6vectorIiSaIiEEixEm(ptr noundef nonnull align 8 dereferenceable(24) %54, i64 noundef %56) #3
  %58 = load i32, ptr %57, align 4
  %59 = sext i32 %58 to i64
  %60 = getelementptr inbounds nuw %"struct.open_spiel::tiny_bridge::TinyBridgeAuctionState::AuctionState", ptr %0, i32 0, i32 0
  store i64 %59, ptr %60, align 8
  %61 = load i32, ptr %4, align 4
  %62 = getelementptr inbounds nuw %"class.open_spiel::State", ptr %5, i32 0, i32 3
  %63 = load i32, ptr %62, align 4
  %64 = srem i32 %61, %63
  %65 = call noundef i32 @_ZNK10open_spiel11tiny_bridge22TinyBridgeAuctionState12PlayerToSeatEi(ptr noundef nonnull align 8 dereferenceable(97) %5, i32 noundef %64)
  %66 = getelementptr inbounds nuw %"struct.open_spiel::tiny_bridge::TinyBridgeAuctionState::AuctionState", ptr %0, i32 0, i32 1
  store i32 %65, ptr %66, align 8
  %67 = getelementptr inbounds nuw %"struct.open_spiel::tiny_bridge::TinyBridgeAuctionState::AuctionState", ptr %0, i32 0, i32 2
  store i32 -1, ptr %67, align 4
  %68 = getelementptr inbounds nuw %"struct.open_spiel::tiny_bridge::TinyBridgeAuctionState::AuctionState", ptr %0, i32 0, i32 3
  store i32 -1, ptr %68, align 8
  br label %69

69:                                               ; preds = %53, %46
  br label %70

70:                                               ; preds = %69, %39
  br label %71

71:                                               ; preds = %70, %25
  br label %72

72:                                               ; preds = %71
  %73 = load i32, ptr %4, align 4
  %74 = add nsw i32 %73, 1
  store i32 %74, ptr %4, align 4
  br label %12, !llvm.loop !8

75:                                               ; preds = %12
  ret void
}