; Function Attrs: mustprogress nofree norecurse nosync nounwind memory(read, argmem: readwrite, inaccessiblemem: none) uwtable
define void @_ZNK10open_spiel11tiny_bridge22TinyBridgeAuctionState14AnalyzeAuctionEv(ptr dead_on_unwind noalias nocapture writable writeonly sret(%"struct.open_spiel::tiny_bridge::TinyBridgeAuctionState::AuctionState") align 8 %0, ptr nocapture noundef nonnull readonly align 8 dereferenceable(97) %1) local_unnamed_addr #10 align 2 {
  %3 = getelementptr inbounds nuw i8, ptr %1, i64 28
  %4 = load i32, ptr %3, align 4
  %5 = getelementptr inbounds nuw i8, ptr %1, i64 72
  %6 = getelementptr inbounds i8, ptr %1, i64 80
  %7 = load ptr, ptr %6, align 8
  %8 = load ptr, ptr %5, align 8
  %9 = ptrtoint ptr %7 to i64
  %10 = ptrtoint ptr %8 to i64
  %11 = sub i64 %9, %10
  %12 = ashr exact i64 %11, 2
  %13 = sext i32 %4 to i64
  %14 = icmp ugt i64 %12, %13
  br i1 %14, label %.lr.ph, label %._crit_edge

.lr.ph:                                           ; preds = %2
  %15 = icmp eq i32 %4, 2
  %16 = zext i1 %15 to i32
  br label %17

17:                                               ; preds = %.lr.ph, %37
  %indvars.iv = phi i64 [ %13, %.lr.ph ], [ %indvars.iv.next, %37 ]
  %18 = phi i32 [ -1, %.lr.ph ], [ %41, %37 ]
  %19 = phi i32 [ -1, %.lr.ph ], [ %40, %37 ]
  %20 = phi i64 [ 0, %.lr.ph ], [ %39, %37 ]
  %21 = phi i32 [ -1, %.lr.ph ], [ %38, %37 ]
  %22 = getelementptr inbounds i32, ptr %8, i64 %indvars.iv
  %23 = load i32, ptr %22, align 4
  switch i32 %23, label %32 [
    i32 7, label %24
    i32 8, label %28
    i32 0, label %37
  ]

24:                                               ; preds = %17
  %25 = trunc nsw i64 %indvars.iv to i32
  %26 = srem i32 %25, %4
  %27 = shl nsw i32 %26, %16
  br label %37

28:                                               ; preds = %17
  %29 = trunc nsw i64 %indvars.iv to i32
  %30 = srem i32 %29, %4
  %31 = shl nsw i32 %30, %16
  br label %37

32:                                               ; preds = %17
  %33 = sext i32 %23 to i64
  %34 = trunc nsw i64 %indvars.iv to i32
  %35 = srem i32 %34, %4
  %36 = shl nsw i32 %35, %16
  br label %37

37:                                               ; preds = %17, %24, %32, %28
  %38 = phi i32 [ %21, %17 ], [ %21, %24 ], [ %36, %32 ], [ %21, %28 ]
  %39 = phi i64 [ %20, %17 ], [ %20, %24 ], [ %33, %32 ], [ %20, %28 ]
  %40 = phi i32 [ %19, %17 ], [ %27, %24 ], [ -1, %32 ], [ %19, %28 ]
  %41 = phi i32 [ %18, %17 ], [ %18, %24 ], [ -1, %32 ], [ %31, %28 ]
  %indvars.iv.next = add nuw nsw i64 %indvars.iv, 1
  %42 = icmp ugt i64 %12, %indvars.iv.next
  br i1 %42, label %17, label %._crit_edge, !llvm.loop !26

._crit_edge:                                      ; preds = %37, %2
  %.lcssa15 = phi i32 [ -1, %2 ], [ %38, %37 ]
  %.lcssa13 = phi i64 [ 0, %2 ], [ %39, %37 ]
  %.lcssa11 = phi i32 [ -1, %2 ], [ %40, %37 ]
  %.lcssa = phi i32 [ -1, %2 ], [ %41, %37 ]
  %43 = getelementptr inbounds nuw i8, ptr %0, i64 16
  %44 = getelementptr inbounds nuw i8, ptr %0, i64 12
  %45 = getelementptr inbounds nuw i8, ptr %0, i64 8
  store i32 %.lcssa, ptr %43, align 8
  store i32 %.lcssa11, ptr %44, align 4
  store i64 %.lcssa13, ptr %0, align 8
  store i32 %.lcssa15, ptr %45, align 8
  ret void
}